
Memory Configuration

Name             Origin             Length             Attributes
FLASH            0x0000000008000000 0x0000000000080000 xr
SRAM             0x0000000020000000 0x0000000000018000 xrw
*default*        0x0000000000000000 0xffffffffffffffff

Linker script and memory map

LOAD main.o
LOAD led.o
LOAD stm32-startup.o

.text           0x0000000008000000      0x5f4
 *(.is_vector)
 *(.text)
 .text          0x0000000008000000      0x4d0 main.o
                0x0000000008000000                main
                0x0000000008000030                idle_task
                0x0000000008000036                task1_handler
                0x0000000008000058                task2_handler
                0x000000000800007a                task3_handler
                0x0000000008000098                task4_handler
                0x00000000080000b6                init_systick_timer
                0x0000000008000120                init_scheduler_stack
                0x000000000800012a                init_tasks_stack
                0x0000000008000244                enable_processor_faults
                0x0000000008000280                get_psp_value
                0x00000000080002a0                save_psp_value
                0x00000000080002c8                update_next_task
                0x0000000008000350                switch_sp_to_psp
                0x000000000800036a                schedule
                0x0000000008000390                task_delay
                0x00000000080003f0                PendSV_Handler
                0x0000000008000416                update_global_tick_count
                0x0000000008000430                unblock_tasks
                0x0000000008000490                SysTick_Handler
                0x00000000080004bc                HardFault_Handler
                0x00000000080004c2                MemManage_Handler
                0x00000000080004c8                BusFault_Handler
 .text          0x00000000080004d0      0x108 led.o
                0x00000000080004d0                delay
                0x00000000080004f8                led_init_all
                0x000000000800056c                led_on
                0x000000000800059c                led_off
                0x00000000080005cc                initialise_monitor_handles
 .text          0x00000000080005d8       0x10 stm32-startup.o
                0x00000000080005d8                RTC_Alarm_IRQHandler
                0x00000000080005d8                HASH_RNG_IRQHandler
                0x00000000080005d8                EXTI2_IRQHandler
                0x00000000080005d8                TIM8_CC_IRQHandler
                0x00000000080005d8                DebugMon_Handler
                0x00000000080005d8                SPI4_IRQHandler
                0x00000000080005d8                TIM1_CC_IRQHandler
                0x00000000080005d8                DMA2_Stream5_IRQHandler
                0x00000000080005d8                DMA1_Stream5_IRQHandler
                0x00000000080005d8                PVD_IRQHandler
                0x00000000080005d8                SDIO_IRQHandler
                0x00000000080005d8                TAMP_STAMP_IRQHandler
                0x00000000080005d8                NMI_Handler
                0x00000000080005d8                CAN2_RX1_IRQHandler
                0x00000000080005d8                EXTI3_IRQHandler
                0x00000000080005d8                TIM8_TRG_COM_TIM14_IRQHandler
                0x00000000080005d8                TIM1_UP_TIM10_IRQHandler
                0x00000000080005d8                TIM8_UP_TIM13_IRQHandler
                0x00000000080005d8                I2C3_ER_IRQHandler
                0x00000000080005d8                EXTI0_IRQHandler
                0x00000000080005d8                I2C2_EV_IRQHandler
                0x00000000080005d8                DMA1_Stream2_IRQHandler
                0x00000000080005d8                CAN1_RX0_IRQHandler
                0x00000000080005d8                FPU_IRQHandler
                0x00000000080005d8                OTG_HS_WKUP_IRQHandler
                0x00000000080005d8                UsageFault_Handler
                0x00000000080005d8                CAN2_SCE_IRQHandler
                0x00000000080005d8                DMA2_Stream2_IRQHandler
                0x00000000080005d8                SPI1_IRQHandler
                0x00000000080005d8                TIM6_DAC_IRQHandler
                0x00000000080005d8                TIM1_BRK_TIM9_IRQHandler
                0x00000000080005d8                DCMI_IRQHandler
                0x00000000080005d8                CAN2_RX0_IRQHandler
                0x00000000080005d8                DMA2_Stream3_IRQHandler
                0x00000000080005d8                USART6_IRQHandler
                0x00000000080005d8                USART3_IRQHandler
                0x00000000080005d8                CRYP_IRQHandler
                0x00000000080005d8                CAN1_RX1_IRQHandler
                0x00000000080005d8                UART5_IRQHandler
                0x00000000080005d8                DMA2_Stream0_IRQHandler
                0x00000000080005d8                TIM4_IRQHandler
                0x00000000080005d8                I2C1_EV_IRQHandler
                0x00000000080005d8                DMA1_Stream6_IRQHandler
                0x00000000080005d8                DMA1_Stream1_IRQHandler
                0x00000000080005d8                UART4_IRQHandler
                0x00000000080005d8                TIM3_IRQHandler
                0x00000000080005d8                RCC_IRQHandler
                0x00000000080005d8                TIM8_BRK_TIM12_IRQHandler
                0x00000000080005d8                Default_Handler
                0x00000000080005d8                EXTI15_10_IRQHandler
                0x00000000080005d8                ADC_IRQHandler
                0x00000000080005d8                DMA1_Stream7_IRQHandler
                0x00000000080005d8                TIM7_IRQHandler
                0x00000000080005d8                CAN2_TX_IRQHandler
                0x00000000080005d8                TIM5_IRQHandler
                0x00000000080005d8                DMA2_Stream7_IRQHandler
                0x00000000080005d8                I2C3_EV_IRQHandler
                0x00000000080005d8                EXTI9_5_IRQHandler
                0x00000000080005d8                RTC_WKUP_IRQHandler
                0x00000000080005d8                ETH_WKUP_IRQHandler
                0x00000000080005d8                SPI2_IRQHandler
                0x00000000080005d8                OTG_HS_EP1_IN_IRQHandler
                0x00000000080005d8                DMA1_Stream0_IRQHandler
                0x00000000080005d8                CAN1_TX_IRQHandler
                0x00000000080005d8                SVC_Handler
                0x00000000080005d8                EXTI4_IRQHandler
                0x00000000080005d8                FSMC_IRQHandler
                0x00000000080005d8                ETH_IRQHandler
                0x00000000080005d8                OTG_HS_EP1_OUT_IRQHandler
                0x00000000080005d8                WWDG_IRQHandler
                0x00000000080005d8                TIM2_IRQHandler
                0x00000000080005d8                OTG_FS_WKUP_IRQHandler
                0x00000000080005d8                TIM1_TRG_COM_TIM11_IRQHandler
                0x00000000080005d8                OTG_HS_IRQHandler
                0x00000000080005d8                EXTI1_IRQHandler
                0x00000000080005d8                USART2_IRQHandler
                0x00000000080005d8                I2C2_ER_IRQHandler
                0x00000000080005d8                DMA2_Stream1_IRQHandler
                0x00000000080005d8                CAN1_SCE_IRQHandler
                0x00000000080005d8                DMA2_Stream4_IRQHandler
                0x00000000080005d8                USART1_IRQHandler
                0x00000000080005d8                OTG_FS_IRQHandler
                0x00000000080005d8                SPI3_IRQHandler
                0x00000000080005d8                DMA1_Stream4_IRQHandler
                0x00000000080005d8                I2C1_ER_IRQHandler
                0x00000000080005d8                DMA2_Stream6_IRQHandler
                0x00000000080005d8                DMA1_Stream3_IRQHandler
                0x00000000080005de                Reset_Handler
 *(.rodata)
 .rodata        0x00000000080005e8        0x9 main.o
                0x00000000080005e8                const_v_1
                0x00000000080005ec                const_v_2
                0x00000000080005f0                const_V_3
                0x00000000080005f4                . = ALIGN (0x4)
 *fill*         0x00000000080005f1        0x3 
                0x00000000080005f4                _etext = .

.glue_7         0x00000000080005f4        0x0
 .glue_7        0x00000000080005f4        0x0 linker stubs

.glue_7t        0x00000000080005f4        0x0
 .glue_7t       0x00000000080005f4        0x0 linker stubs

.vfp11_veneer   0x00000000080005f4        0x0
 .vfp11_veneer  0x00000000080005f4        0x0 linker stubs

.v4_bx          0x00000000080005f4        0x0
 .v4_bx         0x00000000080005f4        0x0 linker stubs

.iplt           0x00000000080005f4        0x0
 .iplt          0x00000000080005f4        0x0 main.o

.rel.dyn        0x00000000080005f4        0x0
 .rel.iplt      0x00000000080005f4        0x0 main.o

.data           0x0000000020000000        0x4 load address 0x00000000080005f4
                0x0000000020000000                _sdata = .
 *(.data)
 .data          0x0000000020000000        0x1 main.o
                0x0000000020000000                current_task
 .data          0x0000000020000001        0x0 led.o
 .data          0x0000000020000001        0x0 stm32-startup.o
                0x0000000020000004                . = ALIGN (0x4)
 *fill*         0x0000000020000001        0x3 
                0x0000000020000004                _edata = .

.igot.plt       0x0000000020000004        0x0 load address 0x00000000080005f8
 .igot.plt      0x0000000020000004        0x0 main.o

.isr_vector     0x0000000020000004      0x18c load address 0x00000000080005f8
 .isr_vector    0x0000000020000004      0x18c stm32-startup.o
                0x0000000020000004                vectors

.bss            0x0000000020000190       0x54 load address 0x0000000008000784
                0x0000000020000190                _sbss = .
 *(.bss)
 .bss           0x0000000020000190       0x54 main.o
                0x0000000020000190                g_tick_count
                0x0000000020000194                user_tasks
 .bss           0x00000000200001e4        0x0 led.o
 .bss           0x00000000200001e4        0x0 stm32-startup.o
 *(COMMON)
                0x00000000200001e4                . = ALIGN (0x4)
                0x00000000200001e4                _ebss = .
OUTPUT(final.elf elf32-littlearm)
LOAD linker stubs

.comment        0x0000000000000000       0x33
 .comment       0x0000000000000000       0x33 main.o
                                         0x34 (size before relaxing)
 .comment       0x0000000000000033       0x34 led.o
 .comment       0x0000000000000033       0x34 stm32-startup.o

.ARM.attributes
                0x0000000000000000       0x2e
 .ARM.attributes
                0x0000000000000000       0x2e main.o
 .ARM.attributes
                0x000000000000002e       0x2e led.o
 .ARM.attributes
                0x000000000000005c       0x2e stm32-startup.o
